target datalayout = "e-m:e-p270:32:32-p271:32:32-p272:64:64-i64:64-i128:128-f80:128-n8:16:32:64-S128"
target triple = "x86_64-pc-linux-gnu"

%"class.llvm::detail::SlowDynamicAPInt" = type { %"class.llvm::APInt" }
%"class.llvm::APInt" = type <{ %union.anon, i32, [4 x i8] }>
%union.anon = type { i64 }

@_ZN4llvm6detail16SlowDynamicAPIntC1ERKNS_5APIntE = unnamed_addr alias void (ptr, ptr), ptr @_ZN4llvm6detail16SlowDynamicAPIntC2ERKNS_5APIntE

; Function Attrs: mustprogress nounwind uwtable
define linkonce_odr hidden noundef zeroext i1 @_ZNK4llvm5APInt12isSingleWordEv(ptr noundef nonnull align 8 dereferenceable(12) %0) #0 comdat align 2 {
  %2 = alloca ptr, align 8
  store ptr %0, ptr %2, align 8
  %3 = load ptr, ptr %2, align 8
  %4 = getelementptr inbounds nuw %"class.llvm::APInt", ptr %3, i32 0, i32 1
  %5 = load i32, ptr %4, align 8
  %6 = icmp ule i32 %5, 64
  ret i1 %6
}

; Function Attrs: mustprogress nounwind uwtable
define linkonce_odr hidden noundef zeroext i1 @_ZNK4llvm5APInt12needsCleanupEv(ptr noundef nonnull align 8 dereferenceable(12) %0) #0 comdat align 2 {
  %2 = alloca ptr, align 8
  store ptr %0, ptr %2, align 8
  %3 = load ptr, ptr %2, align 8
  %4 = call noundef zeroext i1 @_ZNK4llvm5APInt12isSingleWordEv(ptr noundef nonnull align 8 dereferenceable(12) %3)
  %5 = xor i1 %4, true
  ret i1 %5
}

; Function Attrs: mustprogress nounwind uwtable
define linkonce_odr hidden void @_ZN4llvm5APIntD2Ev(ptr noundef nonnull align 8 dereferenceable(12) %0) unnamed_addr #0 comdat align 2 {
  %2 = alloca ptr, align 8
  store ptr %0, ptr %2, align 8
  %3 = load ptr, ptr %2, align 8
  %4 = call noundef zeroext i1 @_ZNK4llvm5APInt12needsCleanupEv(ptr noundef nonnull align 8 dereferenceable(12) %3)
  br i1 %4, label %5, label %11

5:                                                ; preds = %1
  %6 = getelementptr inbounds nuw %"class.llvm::APInt", ptr %3, i32 0, i32 0
  %7 = load ptr, ptr %6, align 8
  %8 = icmp eq ptr %7, null
  br i1 %8, label %10, label %9

9:                                                ; preds = %5
  call void @_ZdaPv(ptr noundef %7) #7
  br label %10

10:                                               ; preds = %9, %5
  br label %11

11:                                               ; preds = %10, %1
  ret void
}

; Function Attrs: mustprogress nounwind uwtable
define linkonce_odr noundef nonnull align 4 dereferenceable(4) ptr @_ZSt3maxIjERKT_S2_S2_(ptr noundef nonnull align 4 dereferenceable(4) %0, ptr noundef nonnull align 4 dereferenceable(4) %1) #0 comdat {
  %3 = alloca ptr, align 8
  %4 = alloca ptr, align 8
  %5 = alloca ptr, align 8
  store ptr %0, ptr %4, align 8
  store ptr %1, ptr %5, align 8
  %6 = load ptr, ptr %4, align 8
  %7 = load i32, ptr %6, align 4
  %8 = load ptr, ptr %5, align 8
  %9 = load i32, ptr %8, align 4
  %10 = icmp ult i32 %7, %9
  br i1 %10, label %11, label %13

11:                                               ; preds = %2
  %12 = load ptr, ptr %5, align 8
  store ptr %12, ptr %3, align 8
  br label %15

13:                                               ; preds = %2
  %14 = load ptr, ptr %4, align 8
  store ptr %14, ptr %3, align 8
  br label %15

15:                                               ; preds = %13, %11
  %16 = load ptr, ptr %3, align 8
  ret ptr %16
}

; Function Attrs: mustprogress nounwind uwtable
define linkonce_odr hidden noundef i32 @_ZNK4llvm5APInt11getBitWidthEv(ptr noundef nonnull align 8 dereferenceable(12) %0) #0 comdat align 2 {
  %2 = alloca ptr, align 8
  store ptr %0, ptr %2, align 8
  %3 = load ptr, ptr %2, align 8
  %4 = getelementptr inbounds nuw %"class.llvm::APInt", ptr %3, i32 0, i32 1
  %5 = load i32, ptr %4, align 8
  ret i32 %5
}

; Function Attrs: mustprogress nounwind uwtable
define dso_local void @_ZNK4llvm6detail16SlowDynamicAPIntrmERKS1_(ptr dead_on_unwind noalias writable sret(%"class.llvm::detail::SlowDynamicAPInt") align 8 %0, ptr noundef nonnull align 8 dereferenceable(16) %1, ptr noundef nonnull align 8 dereferenceable(16) %2) #0 align 2 {
  %4 = alloca ptr, align 8
  %5 = alloca ptr, align 8
  %6 = alloca ptr, align 8
  %7 = alloca i32, align 4
  %8 = alloca i32, align 4
  %9 = alloca i32, align 4
  %10 = alloca %"class.llvm::APInt", align 8
  %11 = alloca %"class.llvm::APInt", align 8
  %12 = alloca %"class.llvm::APInt", align 8
  store ptr %0, ptr %4, align 8
  store ptr %1, ptr %5, align 8
  store ptr %2, ptr %6, align 8
  %13 = load ptr, ptr %5, align 8
  %14 = getelementptr inbounds nuw %"class.llvm::detail::SlowDynamicAPInt", ptr %13, i32 0, i32 0
  %15 = call noundef i32 @_ZNK4llvm5APInt11getBitWidthEv(ptr noundef nonnull align 8 dereferenceable(12) %14)
  store i32 %15, ptr %8, align 4
  %16 = load ptr, ptr %6, align 8
  %17 = getelementptr inbounds nuw %"class.llvm::detail::SlowDynamicAPInt", ptr %16, i32 0, i32 0
  %18 = call noundef i32 @_ZNK4llvm5APInt11getBitWidthEv(ptr noundef nonnull align 8 dereferenceable(12) %17)
  store i32 %18, ptr %9, align 4
  %19 = call noundef nonnull align 4 dereferenceable(4) ptr @_ZSt3maxIjERKT_S2_S2_(ptr noundef nonnull align 4 dereferenceable(4) %8, ptr noundef nonnull align 4 dereferenceable(4) %9)
  %20 = load i32, ptr %19, align 4
  store i32 %20, ptr %7, align 4
  %21 = getelementptr inbounds nuw %"class.llvm::detail::SlowDynamicAPInt", ptr %13, i32 0, i32 0
  %22 = load i32, ptr %7, align 4
  call void @_ZNK4llvm5APInt4sextEj(ptr dead_on_unwind writable sret(%"class.llvm::APInt") align 8 %11, ptr noundef nonnull align 8 dereferenceable(12) %21, i32 noundef %22)
  %23 = load ptr, ptr %6, align 8
  %24 = getelementptr inbounds nuw %"class.llvm::detail::SlowDynamicAPInt", ptr %23, i32 0, i32 0
  %25 = load i32, ptr %7, align 4
  call void @_ZNK4llvm5APInt4sextEj(ptr dead_on_unwind writable sret(%"class.llvm::APInt") align 8 %12, ptr noundef nonnull align 8 dereferenceable(12) %24, i32 noundef %25)
  call void @_ZNK4llvm5APInt4sremERKS0_(ptr dead_on_unwind writable sret(%"class.llvm::APInt") align 8 %10, ptr noundef nonnull align 8 dereferenceable(12) %11, ptr noundef nonnull align 8 dereferenceable(12) %12)
  call void @_ZN4llvm6detail16SlowDynamicAPIntC1ERKNS_5APIntE(ptr noundef nonnull align 8 dereferenceable(16) %0, ptr noundef nonnull align 8 dereferenceable(12) %10)
  call void @_ZN4llvm5APIntD2Ev(ptr noundef nonnull align 8 dereferenceable(12) %10) #5
  call void @_ZN4llvm5APIntD2Ev(ptr noundef nonnull align 8 dereferenceable(12) %12) #5
  call void @_ZN4llvm5APIntD2Ev(ptr noundef nonnull align 8 dereferenceable(12) %11) #5
  ret void
}