; Function Attrs: mustprogress nounwind uwtable
define dso_local void @_ZNK4llvm6detail16SlowDynamicAPIntrmERKS1_(ptr dead_on_unwind noalias writable sret(%"class.llvm::detail::SlowDynamicAPInt") align 8 %0, ptr noundef nonnull align 8 dereferenceable(16) %1, ptr noundef nonnull align 8 dereferenceable(16) %2) local_unnamed_addr #1 align 2 {
  %4 = alloca %"class.llvm::APInt", align 8
  %5 = alloca %"class.llvm::APInt", align 8
  %6 = alloca %"class.llvm::APInt", align 8
  %7 = getelementptr inbounds nuw i8, ptr %1, i64 8
  %8 = load i32, ptr %7, align 8
  %9 = getelementptr inbounds nuw i8, ptr %2, i64 8
  %10 = load i32, ptr %9, align 8
  %.sroa.speculated = tail call i32 @llvm.umax.i32(i32 %8, i32 %10)
  call void @_ZNK4llvm5APInt4sextEj(ptr dead_on_unwind nonnull writable sret(%"class.llvm::APInt") align 8 %5, ptr noundef nonnull align 8 dereferenceable(12) %1, i32 noundef %.sroa.speculated) #9
  call void @_ZNK4llvm5APInt4sextEj(ptr dead_on_unwind nonnull writable sret(%"class.llvm::APInt") align 8 %6, ptr noundef nonnull align 8 dereferenceable(12) %2, i32 noundef %.sroa.speculated) #9
  call void @_ZNK4llvm5APInt4sremERKS0_(ptr dead_on_unwind nonnull writable sret(%"class.llvm::APInt") align 8 %4, ptr noundef nonnull align 8 dereferenceable(12) %5, ptr noundef nonnull align 8 dereferenceable(12) %6) #9
  call void @_ZN4llvm6detail16SlowDynamicAPIntC1ERKNS_5APIntE(ptr noundef nonnull align 8 dereferenceable(16) %0, ptr noundef nonnull align 8 dereferenceable(12) %4) #9
  %11 = getelementptr inbounds nuw i8, ptr %4, i64 8
  %12 = load i32, ptr %11, align 8
  %13 = icmp ugt i32 %12, 64
  br i1 %13, label %14, label %_ZN4llvm5APIntD2Ev.exit

14:                                               ; preds = %3
  %15 = load ptr, ptr %4, align 8
  %16 = icmp eq ptr %15, null
  br i1 %16, label %_ZN4llvm5APIntD2Ev.exit, label %17

17:                                               ; preds = %14
  call void @_ZdaPv(ptr noundef nonnull %15) #10
  br label %_ZN4llvm5APIntD2Ev.exit

_ZN4llvm5APIntD2Ev.exit:                          ; preds = %3, %14, %17
  %18 = getelementptr inbounds nuw i8, ptr %6, i64 8
  %19 = load i32, ptr %18, align 8
  %20 = icmp ugt i32 %19, 64
  br i1 %20, label %21, label %_ZN4llvm5APIntD2Ev.exit4

21:                                               ; preds = %_ZN4llvm5APIntD2Ev.exit
  %22 = load ptr, ptr %6, align 8
  %23 = icmp eq ptr %22, null
  br i1 %23, label %_ZN4llvm5APIntD2Ev.exit4, label %24

24:                                               ; preds = %21
  call void @_ZdaPv(ptr noundef nonnull %22) #10
  br label %_ZN4llvm5APIntD2Ev.exit4

_ZN4llvm5APIntD2Ev.exit4:                         ; preds = %_ZN4llvm5APIntD2Ev.exit, %21, %24
  %25 = getelementptr inbounds nuw i8, ptr %5, i64 8
  %26 = load i32, ptr %25, align 8
  %27 = icmp ugt i32 %26, 64
  br i1 %27, label %28, label %_ZN4llvm5APIntD2Ev.exit5

28:                                               ; preds = %_ZN4llvm5APIntD2Ev.exit4
  %29 = load ptr, ptr %5, align 8
  %30 = icmp eq ptr %29, null
  br i1 %30, label %_ZN4llvm5APIntD2Ev.exit5, label %31

31:                                               ; preds = %28
  call void @_ZdaPv(ptr noundef nonnull %29) #10
  br label %_ZN4llvm5APIntD2Ev.exit5

_ZN4llvm5APIntD2Ev.exit5:                         ; preds = %_ZN4llvm5APIntD2Ev.exit4, %28, %31
  ret void
}